target datalayout = "e-m:e-p270:32:32-p271:32:32-p272:64:64-i64:64-i128:128-f80:128-n8:16:32:64-S128"
target triple = "x86_64-pc-linux-gnu"

@.str.334 = private unnamed_addr constant [29 x i8] c"%s:%u: failed assertion \22%s\22\00", align 1
@.str.335 = private unnamed_addr constant [30 x i8] c"epan/dissectors/packet-dcom.c\00", align 1
@.str.336 = private unnamed_addr constant [15 x i8] c"outLength >= 1\00", align 1
@g_ascii_table = external constant ptr, align 8
@.str.337 = private unnamed_addr constant [5 x i8] c"%02X\00", align 1
@.str.338 = private unnamed_addr constant [20 x i8] c"u32IdxA < outLength\00", align 1

; Function Attrs: nounwind uwtable
define internal i32 @dcom_tvb_get_nwstringz0(ptr noundef %0, i32 noundef %1, i32 noundef %2, ptr noundef %3, i32 noundef %4, ptr noundef %5) #0 {
  %7 = alloca ptr, align 8
  %8 = alloca i32, align 4
  %9 = alloca i32, align 4
  %10 = alloca ptr, align 8
  %11 = alloca i32, align 4
  %12 = alloca ptr, align 8
  %13 = alloca i32, align 4
  %14 = alloca i32, align 4
  %15 = alloca i32, align 4
  %16 = alloca i32, align 4
  %17 = alloca i8, align 1
  %18 = alloca i8, align 1
  store ptr %0, ptr %7, align 8
  store i32 %1, ptr %8, align 4
  store i32 %2, ptr %9, align 4
  store ptr %3, ptr %10, align 8
  store i32 %4, ptr %11, align 4
  store ptr %5, ptr %12, align 8
  store i32 0, ptr %16, align 4
  %19 = load ptr, ptr %12, align 8
  store i32 1, ptr %19, align 4
  %20 = load i32, ptr %9, align 4
  %21 = icmp eq i32 %20, 0
  br i1 %21, label %22, label %23

22:                                               ; preds = %6
  br label %26

23:                                               ; preds = %6
  %24 = load i32, ptr %9, align 4
  %25 = sub i32 %24, 1
  br label %26

26:                                               ; preds = %23, %22
  %27 = phi i32 [ 0, %22 ], [ %25, %23 ]
  store i32 %27, ptr %16, align 4
  %28 = load i32, ptr %11, align 4
  %29 = icmp uge i32 %28, 1
  br i1 %29, label %30, label %31

30:                                               ; preds = %26
  br label %33

31:                                               ; preds = %26
  call void (ptr, ...) @proto_report_dissector_bug(ptr noundef @.str.334, ptr noundef @.str.335, i32 noundef 1580, ptr noundef @.str.336) #10
  unreachable

32:                                               ; No predecessors!
  br label %33

33:                                               ; preds = %32, %30
  store i32 0, ptr %13, align 4
  br label %34

34:                                               ; preds = %84, %33
  %35 = load i32, ptr %13, align 4
  %36 = load i32, ptr %16, align 4
  %37 = icmp ult i32 %35, %36
  br i1 %37, label %38, label %87

38:                                               ; preds = %34
  %39 = load ptr, ptr %7, align 8
  %40 = load i32, ptr %8, align 4
  %41 = load i32, ptr %13, align 4
  %42 = add i32 %40, %41
  %43 = call zeroext i8 @tvb_get_guint8(ptr noundef %39, i32 noundef %42)
  store i8 %43, ptr %17, align 1
  %44 = load ptr, ptr %7, align 8
  %45 = load i32, ptr %8, align 4
  %46 = load i32, ptr %13, align 4
  %47 = add i32 %45, %46
  %48 = add i32 %47, 1
  %49 = call zeroext i8 @tvb_get_guint8(ptr noundef %44, i32 noundef %48)
  store i8 %49, ptr %18, align 1
  %50 = load i8, ptr %17, align 1
  %51 = zext i8 %50 to i32
  %52 = icmp eq i32 %51, 0
  br i1 %52, label %53, label %60

53:                                               ; preds = %38
  %54 = load i8, ptr %18, align 1
  %55 = zext i8 %54 to i32
  %56 = icmp eq i32 %55, 0
  br i1 %56, label %57, label %60

57:                                               ; preds = %53
  %58 = load i32, ptr %13, align 4
  %59 = add i32 %58, 2
  store i32 %59, ptr %13, align 4
  br label %87

60:                                               ; preds = %53, %38
  %61 = load ptr, ptr @g_ascii_table, align 8
  %62 = load i8, ptr %17, align 1
  %63 = zext i8 %62 to i64
  %64 = getelementptr i16, ptr %61, i64 %63
  %65 = load i16, ptr %64, align 2
  %66 = zext i16 %65 to i32
  %67 = and i32 %66, 64
  %68 = icmp ne i32 %67, 0
  br i1 %68, label %77, label %69

69:                                               ; preds = %60
  %70 = load i8, ptr %17, align 1
  %71 = zext i8 %70 to i32
  %72 = icmp eq i32 %71, 10
  br i1 %72, label %77, label %73

73:                                               ; preds = %69
  %74 = load i8, ptr %17, align 1
  %75 = zext i8 %74 to i32
  %76 = icmp eq i32 %75, 13
  br i1 %76, label %77, label %81

77:                                               ; preds = %73, %69, %60
  %78 = load i8, ptr %18, align 1
  %79 = zext i8 %78 to i32
  %80 = icmp ne i32 %79, 0
  br i1 %80, label %81, label %83

81:                                               ; preds = %77, %73
  %82 = load ptr, ptr %12, align 8
  store i32 0, ptr %82, align 4
  br label %83

83:                                               ; preds = %81, %77
  br label %84

84:                                               ; preds = %83
  %85 = load i32, ptr %13, align 4
  %86 = add i32 %85, 2
  store i32 %86, ptr %13, align 4
  br label %34, !llvm.loop !12

87:                                               ; preds = %57, %34
  %88 = load ptr, ptr %12, align 8
  %89 = load i32, ptr %88, align 4
  %90 = icmp eq i32 %89, 1
  br i1 %90, label %91, label %119

91:                                               ; preds = %87
  store i32 0, ptr %14, align 4
  store i32 0, ptr %15, align 4
  br label %92

92:                                               ; preds = %113, %91
  %93 = load i32, ptr %15, align 4
  %94 = load i32, ptr %13, align 4
  %95 = icmp ult i32 %93, %94
  br i1 %95, label %96, label %101

96:                                               ; preds = %92
  %97 = load i32, ptr %14, align 4
  %98 = load i32, ptr %11, align 4
  %99 = sub i32 %98, 2
  %100 = icmp ult i32 %97, %99
  br label %101

101:                                              ; preds = %96, %92
  %102 = phi i1 [ false, %92 ], [ %100, %96 ]
  br i1 %102, label %103, label %118

103:                                              ; preds = %101
  %104 = load ptr, ptr %7, align 8
  %105 = load i32, ptr %8, align 4
  %106 = load i32, ptr %15, align 4
  %107 = add i32 %105, %106
  %108 = call zeroext i8 @tvb_get_guint8(ptr noundef %104, i32 noundef %107)
  %109 = load ptr, ptr %10, align 8
  %110 = load i32, ptr %14, align 4
  %111 = zext i32 %110 to i64
  %112 = getelementptr i8, ptr %109, i64 %111
  store i8 %108, ptr %112, align 1
  br label %113

113:                                              ; preds = %103
  %114 = load i32, ptr %15, align 4
  %115 = add i32 %114, 2
  store i32 %115, ptr %15, align 4
  %116 = load i32, ptr %14, align 4
  %117 = add i32 %116, 1
  store i32 %117, ptr %14, align 4
  br label %92, !llvm.loop !13

118:                                              ; preds = %101
  br label %149

119:                                              ; preds = %87
  store i32 0, ptr %14, align 4
  store i32 0, ptr %15, align 4
  br label %120

120:                                              ; preds = %143, %119
  %121 = load i32, ptr %15, align 4
  %122 = load i32, ptr %13, align 4
  %123 = icmp ult i32 %121, %122
  br i1 %123, label %124, label %129

124:                                              ; preds = %120
  %125 = load i32, ptr %14, align 4
  %126 = load i32, ptr %11, align 4
  %127 = sub i32 %126, 2
  %128 = icmp ult i32 %125, %127
  br label %129

129:                                              ; preds = %124, %120
  %130 = phi i1 [ false, %120 ], [ %128, %124 ]
  br i1 %130, label %131, label %148

131:                                              ; preds = %129
  %132 = load ptr, ptr %10, align 8
  %133 = load i32, ptr %14, align 4
  %134 = zext i32 %133 to i64
  %135 = getelementptr i8, ptr %132, i64 %134
  %136 = load ptr, ptr %7, align 8
  %137 = load i32, ptr %8, align 4
  %138 = load i32, ptr %15, align 4
  %139 = add i32 %137, %138
  %140 = call zeroext i8 @tvb_get_guint8(ptr noundef %136, i32 noundef %139)
  %141 = zext i8 %140 to i32
  %142 = call i32 (ptr, i64, ptr, ...) @snprintf(ptr noundef %135, i64 noundef 3, ptr noundef @.str.337, i32 noundef %141) #11
  br label %143

143:                                              ; preds = %131
  %144 = load i32, ptr %15, align 4
  %145 = add i32 %144, 1
  store i32 %145, ptr %15, align 4
  %146 = load i32, ptr %14, align 4
  %147 = add i32 %146, 2
  store i32 %147, ptr %14, align 4
  br label %120, !llvm.loop !14

148:                                              ; preds = %129
  br label %149

149:                                              ; preds = %148, %118
  %150 = load i32, ptr %14, align 4
  %151 = load i32, ptr %11, align 4
  %152 = icmp ult i32 %150, %151
  br i1 %152, label %153, label %154

153:                                              ; preds = %149
  br label %156

154:                                              ; preds = %149
  call void (ptr, ...) @proto_report_dissector_bug(ptr noundef @.str.334, ptr noundef @.str.335, i32 noundef 1624, ptr noundef @.str.338) #10
  unreachable

155:                                              ; No predecessors!
  br label %156

156:                                              ; preds = %155, %153
  %157 = load ptr, ptr %10, align 8
  %158 = load i32, ptr %14, align 4
  %159 = zext i32 %158 to i64
  %160 = getelementptr i8, ptr %157, i64 %159
  store i8 0, ptr %160, align 1
  %161 = load i32, ptr %8, align 4
  %162 = load i32, ptr %13, align 4
  %163 = add i32 %161, %162
  ret i32 %163
}