; Function Attrs: nounwind uwtable
define internal fastcc i32 @dcom_tvb_get_nwstringz0(ptr noundef %0, i32 noundef %1, i32 noundef %2, ptr noundef writeonly captures(none) %3, i32 noundef %4, ptr noundef nonnull captures(none) initializes((0, 4)) %5) unnamed_addr #1 {
  store i32 1, ptr %5, align 4
  %7 = tail call i32 @llvm.usub.sat.i32(i32 %2, i32 1)
  %.not = icmp eq i32 %4, 0
  br i1 %.not, label %9, label %.preheader73

.preheader73:                                     ; preds = %6
  %invariant.op = add i32 %1, 1
  %.not85 = icmp ult i32 %2, 2
  br i1 %.not85, label %.loopexit74, label %.lr.ph

.lr.ph:                                           ; preds = %.preheader73
  %8 = load ptr, ptr @g_ascii_table, align 8
  br label %10

9:                                                ; preds = %6
  tail call void (ptr, ...) @proto_report_dissector_bug(ptr noundef nonnull @.str.334, ptr noundef nonnull @.str.335, i32 noundef 1580, ptr noundef nonnull @.str.336) #13
  unreachable

10:                                               ; preds = %.lr.ph, %28
  %.076 = phi i32 [ 0, %.lr.ph ], [ %29, %28 ]
  %11 = add i32 %.076, %1
  %12 = tail call zeroext i8 @tvb_get_guint8(ptr noundef %0, i32 noundef %11) #11
  %.reass = add i32 %.076, %invariant.op
  %13 = tail call zeroext i8 @tvb_get_guint8(ptr noundef %0, i32 noundef %.reass) #11
  %14 = icmp eq i8 %12, 0
  %15 = icmp eq i8 %13, 0
  %or.cond = select i1 %14, i1 %15, i1 false
  br i1 %or.cond, label %16, label %18

16:                                               ; preds = %10
  %17 = add i32 %.076, 2
  br label %.loopexit74

18:                                               ; preds = %10
  %19 = zext i8 %12 to i64
  %20 = getelementptr i16, ptr %8, i64 %19
  %21 = load i16, ptr %20, align 2
  %22 = and i16 %21, 64
  %23 = icmp eq i16 %22, 0
  %24 = icmp ne i8 %12, 10
  %25 = icmp ne i8 %12, 13
  %.not70 = and i1 %24, %25
  %or.cond8.not67 = select i1 %23, i1 %.not70, i1 false
  %26 = icmp ne i8 %13, 0
  %or.cond11 = select i1 %or.cond8.not67, i1 true, i1 %26
  br i1 %or.cond11, label %27, label %28

27:                                               ; preds = %18
  store i32 0, ptr %5, align 4
  br label %28

28:                                               ; preds = %27, %18
  %29 = add i32 %.076, 2
  %30 = icmp ult i32 %29, %7
  br i1 %30, label %10, label %.loopexit74, !llvm.loop !12

.loopexit74:                                      ; preds = %28, %.preheader73, %16
  %.1 = phi i32 [ %17, %16 ], [ 0, %.preheader73 ], [ %29, %28 ]
  %31 = load i32, ptr %5, align 4
  %32 = icmp eq i32 %31, 1
  %33 = add i32 %4, -2
  %34 = icmp ne i32 %.1, 0
  %35 = icmp ne i32 %33, 0
  %36 = and i1 %34, %35
  br i1 %32, label %.preheader, label %.preheader71

.preheader71:                                     ; preds = %.loopexit74
  br i1 %36, label %.lr.ph79, label %.loopexit

.preheader:                                       ; preds = %.loopexit74
  br i1 %36, label %.lr.ph83.preheader, label %.loopexit

.lr.ph83.preheader:                               ; preds = %.preheader
  %37 = zext i32 %33 to i64
  br label %.lr.ph83

.lr.ph83:                                         ; preds = %.lr.ph83.preheader, %.lr.ph83
  %indvars.iv = phi i64 [ 0, %.lr.ph83.preheader ], [ %indvars.iv.next, %.lr.ph83 ]
  %.06281 = phi i32 [ 0, %.lr.ph83.preheader ], [ %41, %.lr.ph83 ]
  %38 = add i32 %.06281, %1
  %39 = tail call zeroext i8 @tvb_get_guint8(ptr noundef %0, i32 noundef %38) #11
  %40 = getelementptr i8, ptr %3, i64 %indvars.iv
  store i8 %39, ptr %40, align 1
  %41 = add nuw i32 %.06281, 2
  %indvars.iv.next = add nuw nsw i64 %indvars.iv, 1
  %42 = icmp ult i32 %41, %.1
  %43 = icmp samesign ult i64 %indvars.iv.next, %37
  %44 = select i1 %42, i1 %43, i1 false
  br i1 %44, label %.lr.ph83, label %.loopexit.loopexit, !llvm.loop !13

.lr.ph79:                                         ; preds = %.preheader71, %.lr.ph79
  %.278 = phi i32 [ %52, %.lr.ph79 ], [ 0, %.preheader71 ]
  %.16377 = phi i32 [ %51, %.lr.ph79 ], [ 0, %.preheader71 ]
  %45 = zext i32 %.278 to i64
  %46 = getelementptr i8, ptr %3, i64 %45
  %47 = add i32 %.16377, %1
  %48 = tail call zeroext i8 @tvb_get_guint8(ptr noundef %0, i32 noundef %47) #11
  %49 = zext i8 %48 to i32
  %50 = tail call i32 (ptr, i64, ptr, ...) @snprintf(ptr noundef nonnull dereferenceable(1) %46, i64 noundef 3, ptr noundef nonnull @.str.337, i32 noundef %49) #11
  %51 = add nuw i32 %.16377, 1
  %52 = add i32 %.278, 2
  %53 = icmp ult i32 %51, %.1
  %54 = icmp ult i32 %52, %33
  %55 = select i1 %53, i1 %54, i1 false
  br i1 %55, label %.lr.ph79, label %.loopexit, !llvm.loop !14

.loopexit.loopexit:                               ; preds = %.lr.ph83
  %56 = trunc nuw nsw i64 %indvars.iv.next to i32
  br label %.loopexit

.loopexit:                                        ; preds = %.lr.ph79, %.loopexit.loopexit, %.preheader71, %.preheader
  %.161 = phi i32 [ 0, %.preheader ], [ 0, %.preheader71 ], [ %56, %.loopexit.loopexit ], [ %52, %.lr.ph79 ]
  %57 = icmp ult i32 %.161, %4
  br i1 %57, label %59, label %58

58:                                               ; preds = %.loopexit
  tail call void (ptr, ...) @proto_report_dissector_bug(ptr noundef nonnull @.str.334, ptr noundef nonnull @.str.335, i32 noundef 1624, ptr noundef nonnull @.str.338) #13
  unreachable

59:                                               ; preds = %.loopexit
  %60 = zext i32 %.161 to i64
  %61 = getelementptr i8, ptr %3, i64 %60
  store i8 0, ptr %61, align 1
  %62 = add i32 %.1, %1
  ret i32 %62
}